target datalayout = "e-m:e-p270:32:32-p271:32:32-p272:64:64-i64:64-i128:128-f80:128-n8:16:32:64-S128"
target triple = "x86_64-pc-linux-gnu"

%class.System = type { i32, i32, i32, i32, i32, i32, %"class.std::vector", %"class.std::vector.0", %"class.std::vector.4", %"class.std::vector.9", %"class.std::vector.14", %"class.std::vector.19", ptr, ptr }
%"class.std::vector" = type { %"struct.std::_Bvector_base" }
%"struct.std::_Bvector_base" = type { %"struct.std::_Bvector_base<std::allocator<bool>>::_Bvector_impl" }
%"struct.std::_Bvector_base<std::allocator<bool>>::_Bvector_impl" = type { %"struct.std::_Bvector_base<std::allocator<bool>>::_Bvector_impl_data" }
%"struct.std::_Bvector_base<std::allocator<bool>>::_Bvector_impl_data" = type { %"struct.std::_Bit_iterator", %"struct.std::_Bit_iterator", ptr }
%"struct.std::_Bit_iterator" = type { %"struct.std::_Bit_iterator_base.base", [4 x i8] }
%"struct.std::_Bit_iterator_base.base" = type <{ ptr, i32 }>
%"class.std::vector.0" = type { %"struct.std::_Vector_base" }
%"struct.std::_Vector_base" = type { %"struct.std::_Vector_base<void (*)(int), std::allocator<void (*)(int)>>::_Vector_impl" }
%"struct.std::_Vector_base<void (*)(int), std::allocator<void (*)(int)>>::_Vector_impl" = type { %"struct.std::_Vector_base<void (*)(int), std::allocator<void (*)(int)>>::_Vector_impl_data" }
%"struct.std::_Vector_base<void (*)(int), std::allocator<void (*)(int)>>::_Vector_impl_data" = type { ptr, ptr, ptr }
%"class.std::vector.4" = type { %"struct.std::_Vector_base.5" }
%"struct.std::_Vector_base.5" = type { %"struct.std::_Vector_base<void (*)(const boards &, std::vector<int> &, std::vector<int> &), std::allocator<void (*)(const boards &, std::vector<int> &, std::vector<int> &)>>::_Vector_impl" }
%"struct.std::_Vector_base<void (*)(const boards &, std::vector<int> &, std::vector<int> &), std::allocator<void (*)(const boards &, std::vector<int> &, std::vector<int> &)>>::_Vector_impl" = type { %"struct.std::_Vector_base<void (*)(const boards &, std::vector<int> &, std::vector<int> &), std::allocator<void (*)(const boards &, std::vector<int> &, std::vector<int> &)>>::_Vector_impl_data" }
%"struct.std::_Vector_base<void (*)(const boards &, std::vector<int> &, std::vector<int> &), std::allocator<void (*)(const boards &, std::vector<int> &, std::vector<int> &)>>::_Vector_impl_data" = type { ptr, ptr, ptr }
%"class.std::vector.9" = type { %"struct.std::_Vector_base.10" }
%"struct.std::_Vector_base.10" = type { %"struct.std::_Vector_base<void (*)(int, int), std::allocator<void (*)(int, int)>>::_Vector_impl" }
%"struct.std::_Vector_base<void (*)(int, int), std::allocator<void (*)(int, int)>>::_Vector_impl" = type { %"struct.std::_Vector_base<void (*)(int, int), std::allocator<void (*)(int, int)>>::_Vector_impl_data" }
%"struct.std::_Vector_base<void (*)(int, int), std::allocator<void (*)(int, int)>>::_Vector_impl_data" = type { ptr, ptr, ptr }
%"class.std::vector.14" = type { %"struct.std::_Vector_base.15" }
%"struct.std::_Vector_base.15" = type { %"struct.std::_Vector_base<void (*)(const std::vector<int> &), std::allocator<void (*)(const std::vector<int> &)>>::_Vector_impl" }
%"struct.std::_Vector_base<void (*)(const std::vector<int> &), std::allocator<void (*)(const std::vector<int> &)>>::_Vector_impl" = type { %"struct.std::_Vector_base<void (*)(const std::vector<int> &), std::allocator<void (*)(const std::vector<int> &)>>::_Vector_impl_data" }
%"struct.std::_Vector_base<void (*)(const std::vector<int> &), std::allocator<void (*)(const std::vector<int> &)>>::_Vector_impl_data" = type { ptr, ptr, ptr }
%"class.std::vector.19" = type { %"struct.std::_Vector_base.20" }
%"struct.std::_Vector_base.20" = type { %"struct.std::_Vector_base<int (System::*)(), std::allocator<int (System::*)()>>::_Vector_impl" }
%"struct.std::_Vector_base<int (System::*)(), std::allocator<int (System::*)()>>::_Vector_impl" = type { %"struct.std::_Vector_base<int (System::*)(), std::allocator<int (System::*)()>>::_Vector_impl_data" }
%"struct.std::_Vector_base<int (System::*)(), std::allocator<int (System::*)()>>::_Vector_impl_data" = type { ptr, ptr, ptr }
%class.Memory = type { %"class.std::vector.24", i32, %"class.std::vector.29" }
%"class.std::vector.24" = type { %"struct.std::_Vector_base.25" }
%"struct.std::_Vector_base.25" = type { %"struct.std::_Vector_base<ThreadData *, std::allocator<ThreadData *>>::_Vector_impl" }
%"struct.std::_Vector_base<ThreadData *, std::allocator<ThreadData *>>::_Vector_impl" = type { %"struct.std::_Vector_base<ThreadData *, std::allocator<ThreadData *>>::_Vector_impl_data" }
%"struct.std::_Vector_base<ThreadData *, std::allocator<ThreadData *>>::_Vector_impl_data" = type { ptr, ptr, ptr }
%"class.std::vector.29" = type { %"struct.std::_Vector_base.30" }
%"struct.std::_Vector_base.30" = type { %"struct.std::_Vector_base<std::__cxx11::basic_string<char>, std::allocator<std::__cxx11::basic_string<char>>>::_Vector_impl" }
%"struct.std::_Vector_base<std::__cxx11::basic_string<char>, std::allocator<std::__cxx11::basic_string<char>>>::_Vector_impl" = type { %"struct.std::_Vector_base<std::__cxx11::basic_string<char>, std::allocator<std::__cxx11::basic_string<char>>>::_Vector_impl_data" }
%"struct.std::_Vector_base<std::__cxx11::basic_string<char>, std::allocator<std::__cxx11::basic_string<char>>>::_Vector_impl_data" = type { ptr, ptr, ptr }

@sysdep = global %class.System zeroinitializer, align 8
@memory = global %class.Memory zeroinitializer, align 8

; Function Attrs: mustprogress uwtable
define void @_Z15CloseDebugFilesv() #4 {
  %1 = alloca i32, align 4
  %2 = alloca ptr, align 8
  store i32 0, ptr %1, align 4
  br label %3

3:                                                ; preds = %10, %0
  %4 = load i32, ptr %1, align 4
  %5 = call noundef i32 @_ZNK6System10NumThreadsEv(ptr noundef nonnull align 8 dereferenceable(200) @sysdep)
  %6 = icmp ult i32 %4, %5
  br i1 %6, label %7, label %13

7:                                                ; preds = %3
  %8 = load i32, ptr %1, align 4
  %9 = call noundef ptr @_ZN6Memory6GetPtrEj(ptr noundef nonnull align 8 dereferenceable(56) @memory, i32 noundef %8)
  store ptr %9, ptr %2, align 8
  br label %10

10:                                               ; preds = %7
  %11 = load i32, ptr %1, align 4
  %12 = add i32 %11, 1
  store i32 %12, ptr %1, align 4
  br label %3, !llvm.loop !17

13:                                               ; preds = %3
  ret void
}