; Function Attrs: mustprogress uwtable
define void @_Z15CloseDebugFilesv() local_unnamed_addr #3 {
  %1 = tail call noundef i32 @_ZNK6System10NumThreadsEv(ptr noundef nonnull align 8 dereferenceable(200) @sysdep)
  %.not = icmp eq i32 %1, 0
  br i1 %.not, label %._crit_edge, label %.lr.ph

.lr.ph:                                           ; preds = %0, %.lr.ph
  %.03 = phi i32 [ %3, %.lr.ph ], [ 0, %0 ]
  %2 = tail call noundef ptr @_ZN6Memory6GetPtrEj(ptr noundef nonnull align 8 dereferenceable(56) @memory, i32 noundef %.03)
  %3 = add nuw i32 %.03, 1
  %4 = tail call noundef i32 @_ZNK6System10NumThreadsEv(ptr noundef nonnull align 8 dereferenceable(200) @sysdep)
  %5 = icmp ult i32 %3, %4
  br i1 %5, label %.lr.ph, label %._crit_edge, !llvm.loop !19

._crit_edge:                                      ; preds = %.lr.ph, %0
  ret void
}